target datalayout = "e-m:e-p270:32:32-p271:32:32-p272:64:64-i64:64-i128:128-f80:128-n8:16:32:64-S128"
target triple = "x86_64-pc-linux-gnu"

; Function Attrs: inlinehint nounwind uwtable
define internal void @yvu9_to_yuy2_c(ptr noundef %0, ptr noundef %1, ptr noundef %2, ptr noundef %3, i32 noundef %4, i32 noundef %5, i32 noundef %6, i32 noundef %7, i32 noundef %8, i32 noundef %9) #4 {
  %11 = alloca ptr, align 8
  %12 = alloca ptr, align 8
  %13 = alloca ptr, align 8
  %14 = alloca ptr, align 8
  %15 = alloca i32, align 4
  %16 = alloca i32, align 4
  %17 = alloca i32, align 4
  %18 = alloca i32, align 4
  %19 = alloca i32, align 4
  %20 = alloca i32, align 4
  %21 = alloca i32, align 4
  %22 = alloca i32, align 4
  %23 = alloca i32, align 4
  %24 = alloca i32, align 4
  %25 = alloca ptr, align 8
  %26 = alloca ptr, align 8
  %27 = alloca ptr, align 8
  %28 = alloca ptr, align 8
  %29 = alloca i32, align 4
  store ptr %0, ptr %11, align 8, !tbaa !4
  store ptr %1, ptr %12, align 8, !tbaa !4
  store ptr %2, ptr %13, align 8, !tbaa !4
  store ptr %3, ptr %14, align 8, !tbaa !4
  store i32 %4, ptr %15, align 4, !tbaa !9
  store i32 %5, ptr %16, align 4, !tbaa !9
  store i32 %6, ptr %17, align 4, !tbaa !9
  store i32 %7, ptr %18, align 4, !tbaa !9
  store i32 %8, ptr %19, align 4, !tbaa !9
  store i32 %9, ptr %20, align 4, !tbaa !9
  call void @llvm.lifetime.start.p0(i64 4, ptr %21) #5
  call void @llvm.lifetime.start.p0(i64 4, ptr %22) #5
  call void @llvm.lifetime.start.p0(i64 4, ptr %23) #5
  %30 = load i32, ptr %15, align 4, !tbaa !9
  %31 = sdiv i32 %30, 2
  store i32 %31, ptr %23, align 4, !tbaa !9
  call void @llvm.lifetime.start.p0(i64 4, ptr %24) #5
  %32 = load i32, ptr %16, align 4, !tbaa !9
  store i32 %32, ptr %24, align 4, !tbaa !9
  store i32 0, ptr %22, align 4, !tbaa !9
  br label %33

33:                                               ; preds = %166, %10
  %34 = load i32, ptr %22, align 4, !tbaa !9
  %35 = load i32, ptr %24, align 4, !tbaa !9
  %36 = icmp slt i32 %34, %35
  br i1 %36, label %37, label %169

37:                                               ; preds = %33
  call void @llvm.lifetime.start.p0(i64 8, ptr %25) #5
  %38 = load ptr, ptr %11, align 8, !tbaa !4
  %39 = load i32, ptr %17, align 4, !tbaa !9
  %40 = load i32, ptr %22, align 4, !tbaa !9
  %41 = mul nsw i32 %39, %40
  %42 = sext i32 %41 to i64
  %43 = getelementptr inbounds i8, ptr %38, i64 %42
  store ptr %43, ptr %25, align 8, !tbaa !4
  call void @llvm.lifetime.start.p0(i64 8, ptr %26) #5
  %44 = load ptr, ptr %12, align 8, !tbaa !4
  %45 = load i32, ptr %18, align 4, !tbaa !9
  %46 = load i32, ptr %22, align 4, !tbaa !9
  %47 = ashr i32 %46, 2
  %48 = mul nsw i32 %45, %47
  %49 = sext i32 %48 to i64
  %50 = getelementptr inbounds i8, ptr %44, i64 %49
  store ptr %50, ptr %26, align 8, !tbaa !4
  call void @llvm.lifetime.start.p0(i64 8, ptr %27) #5
  %51 = load ptr, ptr %13, align 8, !tbaa !4
  %52 = load i32, ptr %19, align 4, !tbaa !9
  %53 = load i32, ptr %22, align 4, !tbaa !9
  %54 = ashr i32 %53, 2
  %55 = mul nsw i32 %52, %54
  %56 = sext i32 %55 to i64
  %57 = getelementptr inbounds i8, ptr %51, i64 %56
  store ptr %57, ptr %27, align 8, !tbaa !4
  call void @llvm.lifetime.start.p0(i64 8, ptr %28) #5
  %58 = load ptr, ptr %14, align 8, !tbaa !4
  %59 = load i32, ptr %20, align 4, !tbaa !9
  %60 = load i32, ptr %22, align 4, !tbaa !9
  %61 = mul nsw i32 %59, %60
  %62 = sext i32 %61 to i64
  %63 = getelementptr inbounds i8, ptr %58, i64 %62
  store ptr %63, ptr %28, align 8, !tbaa !4
  store i32 0, ptr %21, align 4, !tbaa !9
  br label %64

64:                                               ; preds = %162, %37
  %65 = load i32, ptr %21, align 4, !tbaa !9
  %66 = load i32, ptr %23, align 4, !tbaa !9
  %67 = icmp slt i32 %65, %66
  br i1 %67, label %68, label %165

68:                                               ; preds = %64
  call void @llvm.lifetime.start.p0(i64 4, ptr %29) #5
  %69 = load i32, ptr %21, align 4, !tbaa !9
  %70 = shl i32 %69, 2
  store i32 %70, ptr %29, align 4, !tbaa !9
  %71 = load ptr, ptr %25, align 8, !tbaa !4
  %72 = load i32, ptr %29, align 4, !tbaa !9
  %73 = sext i32 %72 to i64
  %74 = getelementptr inbounds i8, ptr %71, i64 %73
  %75 = load i8, ptr %74, align 1, !tbaa !13
  %76 = load ptr, ptr %28, align 8, !tbaa !4
  %77 = load i32, ptr %21, align 4, !tbaa !9
  %78 = mul nsw i32 8, %77
  %79 = add nsw i32 %78, 0
  %80 = sext i32 %79 to i64
  %81 = getelementptr inbounds i8, ptr %76, i64 %80
  store i8 %75, ptr %81, align 1, !tbaa !13
  %82 = load ptr, ptr %26, align 8, !tbaa !4
  %83 = load i32, ptr %21, align 4, !tbaa !9
  %84 = sext i32 %83 to i64
  %85 = getelementptr inbounds i8, ptr %82, i64 %84
  %86 = load i8, ptr %85, align 1, !tbaa !13
  %87 = load ptr, ptr %28, align 8, !tbaa !4
  %88 = load i32, ptr %21, align 4, !tbaa !9
  %89 = mul nsw i32 8, %88
  %90 = add nsw i32 %89, 1
  %91 = sext i32 %90 to i64
  %92 = getelementptr inbounds i8, ptr %87, i64 %91
  store i8 %86, ptr %92, align 1, !tbaa !13
  %93 = load ptr, ptr %25, align 8, !tbaa !4
  %94 = load i32, ptr %29, align 4, !tbaa !9
  %95 = add nsw i32 %94, 1
  %96 = sext i32 %95 to i64
  %97 = getelementptr inbounds i8, ptr %93, i64 %96
  %98 = load i8, ptr %97, align 1, !tbaa !13
  %99 = load ptr, ptr %28, align 8, !tbaa !4
  %100 = load i32, ptr %21, align 4, !tbaa !9
  %101 = mul nsw i32 8, %100
  %102 = add nsw i32 %101, 2
  %103 = sext i32 %102 to i64
  %104 = getelementptr inbounds i8, ptr %99, i64 %103
  store i8 %98, ptr %104, align 1, !tbaa !13
  %105 = load ptr, ptr %27, align 8, !tbaa !4
  %106 = load i32, ptr %21, align 4, !tbaa !9
  %107 = sext i32 %106 to i64
  %108 = getelementptr inbounds i8, ptr %105, i64 %107
  %109 = load i8, ptr %108, align 1, !tbaa !13
  %110 = load ptr, ptr %28, align 8, !tbaa !4
  %111 = load i32, ptr %21, align 4, !tbaa !9
  %112 = mul nsw i32 8, %111
  %113 = add nsw i32 %112, 3
  %114 = sext i32 %113 to i64
  %115 = getelementptr inbounds i8, ptr %110, i64 %114
  store i8 %109, ptr %115, align 1, !tbaa !13
  %116 = load ptr, ptr %25, align 8, !tbaa !4
  %117 = load i32, ptr %29, align 4, !tbaa !9
  %118 = add nsw i32 %117, 2
  %119 = sext i32 %118 to i64
  %120 = getelementptr inbounds i8, ptr %116, i64 %119
  %121 = load i8, ptr %120, align 1, !tbaa !13
  %122 = load ptr, ptr %28, align 8, !tbaa !4
  %123 = load i32, ptr %21, align 4, !tbaa !9
  %124 = mul nsw i32 8, %123
  %125 = add nsw i32 %124, 4
  %126 = sext i32 %125 to i64
  %127 = getelementptr inbounds i8, ptr %122, i64 %126
  store i8 %121, ptr %127, align 1, !tbaa !13
  %128 = load ptr, ptr %26, align 8, !tbaa !4
  %129 = load i32, ptr %21, align 4, !tbaa !9
  %130 = sext i32 %129 to i64
  %131 = getelementptr inbounds i8, ptr %128, i64 %130
  %132 = load i8, ptr %131, align 1, !tbaa !13
  %133 = load ptr, ptr %28, align 8, !tbaa !4
  %134 = load i32, ptr %21, align 4, !tbaa !9
  %135 = mul nsw i32 8, %134
  %136 = add nsw i32 %135, 5
  %137 = sext i32 %136 to i64
  %138 = getelementptr inbounds i8, ptr %133, i64 %137
  store i8 %132, ptr %138, align 1, !tbaa !13
  %139 = load ptr, ptr %25, align 8, !tbaa !4
  %140 = load i32, ptr %29, align 4, !tbaa !9
  %141 = add nsw i32 %140, 3
  %142 = sext i32 %141 to i64
  %143 = getelementptr inbounds i8, ptr %139, i64 %142
  %144 = load i8, ptr %143, align 1, !tbaa !13
  %145 = load ptr, ptr %28, align 8, !tbaa !4
  %146 = load i32, ptr %21, align 4, !tbaa !9
  %147 = mul nsw i32 8, %146
  %148 = add nsw i32 %147, 6
  %149 = sext i32 %148 to i64
  %150 = getelementptr inbounds i8, ptr %145, i64 %149
  store i8 %144, ptr %150, align 1, !tbaa !13
  %151 = load ptr, ptr %27, align 8, !tbaa !4
  %152 = load i32, ptr %21, align 4, !tbaa !9
  %153 = sext i32 %152 to i64
  %154 = getelementptr inbounds i8, ptr %151, i64 %153
  %155 = load i8, ptr %154, align 1, !tbaa !13
  %156 = load ptr, ptr %28, align 8, !tbaa !4
  %157 = load i32, ptr %21, align 4, !tbaa !9
  %158 = mul nsw i32 8, %157
  %159 = add nsw i32 %158, 7
  %160 = sext i32 %159 to i64
  %161 = getelementptr inbounds i8, ptr %156, i64 %160
  store i8 %155, ptr %161, align 1, !tbaa !13
  call void @llvm.lifetime.end.p0(i64 4, ptr %29) #5
  br label %162

162:                                              ; preds = %68
  %163 = load i32, ptr %21, align 4, !tbaa !9
  %164 = add nsw i32 %163, 1
  store i32 %164, ptr %21, align 4, !tbaa !9
  br label %64, !llvm.loop !93

165:                                              ; preds = %64
  call void @llvm.lifetime.end.p0(i64 8, ptr %28) #5
  call void @llvm.lifetime.end.p0(i64 8, ptr %27) #5
  call void @llvm.lifetime.end.p0(i64 8, ptr %26) #5
  call void @llvm.lifetime.end.p0(i64 8, ptr %25) #5
  br label %166

166:                                              ; preds = %165
  %167 = load i32, ptr %22, align 4, !tbaa !9
  %168 = add nsw i32 %167, 1
  store i32 %168, ptr %22, align 4, !tbaa !9
  br label %33, !llvm.loop !94

169:                                              ; preds = %33
  call void @llvm.lifetime.end.p0(i64 4, ptr %24) #5
  call void @llvm.lifetime.end.p0(i64 4, ptr %23) #5
  call void @llvm.lifetime.end.p0(i64 4, ptr %22) #5
  call void @llvm.lifetime.end.p0(i64 4, ptr %21) #5
  ret void
}