; Function Attrs: inlinehint nofree norecurse nosync nounwind memory(argmem: readwrite) uwtable
define internal void @yvu9_to_yuy2_c(ptr noundef readonly captures(none) %0, ptr noundef readonly captures(none) %1, ptr noundef readonly captures(none) %2, ptr noundef writeonly captures(none) %3, i32 noundef %4, i32 noundef %5, i32 noundef %6, i32 noundef %7, i32 noundef %8, i32 noundef %9) #3 {
  %11 = icmp sgt i32 %5, 0
  %12 = icmp sgt i32 %4, 1
  %or.cond = and i1 %11, %12
  br i1 %or.cond, label %.lr.ph.us.preheader, label %._crit_edge57

.lr.ph.us.preheader:                              ; preds = %10
  %13 = lshr i32 %4, 1
  %14 = sext i32 %6 to i64
  %15 = sext i32 %9 to i64
  %wide.trip.count63 = zext nneg i32 %5 to i64
  %wide.trip.count = zext nneg i32 %13 to i64
  br label %.lr.ph.us

.lr.ph.us:                                        ; preds = %.lr.ph.us.preheader, %._crit_edge.us
  %indvars.iv60 = phi i64 [ 0, %.lr.ph.us.preheader ], [ %indvars.iv.next61, %._crit_edge.us ]
  %16 = mul nsw i64 %indvars.iv60, %14
  %17 = getelementptr inbounds i8, ptr %0, i64 %16
  %18 = trunc nuw nsw i64 %indvars.iv60 to i32
  %19 = lshr i32 %18, 2
  %20 = mul nsw i32 %19, %7
  %21 = sext i32 %20 to i64
  %22 = getelementptr inbounds i8, ptr %1, i64 %21
  %23 = mul nsw i32 %19, %8
  %24 = sext i32 %23 to i64
  %25 = getelementptr inbounds i8, ptr %2, i64 %24
  %26 = mul nsw i64 %indvars.iv60, %15
  %27 = getelementptr inbounds i8, ptr %3, i64 %26
  br label %28

28:                                               ; preds = %.lr.ph.us, %28
  %indvars.iv = phi i64 [ 0, %.lr.ph.us ], [ %indvars.iv.next, %28 ]
  %indvars.iv.tr = trunc i64 %indvars.iv to i32
  %29 = shl i32 %indvars.iv.tr, 2
  %30 = sext i32 %29 to i64
  %31 = getelementptr inbounds i8, ptr %17, i64 %30
  %32 = load i8, ptr %31, align 1, !tbaa !8
  %33 = shl nsw i64 %indvars.iv, 3
  %34 = getelementptr inbounds nuw i8, ptr %27, i64 %33
  store i8 %32, ptr %34, align 1, !tbaa !8
  %35 = getelementptr inbounds nuw i8, ptr %22, i64 %indvars.iv
  %36 = load i8, ptr %35, align 1, !tbaa !8
  %37 = getelementptr inbounds nuw i8, ptr %34, i64 1
  store i8 %36, ptr %37, align 1, !tbaa !8
  %38 = getelementptr i8, ptr %31, i64 1
  %39 = load i8, ptr %38, align 1, !tbaa !8
  %40 = getelementptr inbounds nuw i8, ptr %34, i64 2
  store i8 %39, ptr %40, align 1, !tbaa !8
  %41 = getelementptr inbounds nuw i8, ptr %25, i64 %indvars.iv
  %42 = load i8, ptr %41, align 1, !tbaa !8
  %43 = getelementptr inbounds nuw i8, ptr %34, i64 3
  store i8 %42, ptr %43, align 1, !tbaa !8
  %44 = getelementptr i8, ptr %31, i64 2
  %45 = load i8, ptr %44, align 1, !tbaa !8
  %46 = getelementptr inbounds nuw i8, ptr %34, i64 4
  store i8 %45, ptr %46, align 1, !tbaa !8
  %47 = load i8, ptr %35, align 1, !tbaa !8
  %48 = getelementptr inbounds nuw i8, ptr %34, i64 5
  store i8 %47, ptr %48, align 1, !tbaa !8
  %49 = getelementptr i8, ptr %31, i64 3
  %50 = load i8, ptr %49, align 1, !tbaa !8
  %51 = getelementptr inbounds nuw i8, ptr %34, i64 6
  store i8 %50, ptr %51, align 1, !tbaa !8
  %52 = load i8, ptr %41, align 1, !tbaa !8
  %53 = getelementptr inbounds nuw i8, ptr %34, i64 7
  store i8 %52, ptr %53, align 1, !tbaa !8
  %indvars.iv.next = add nuw nsw i64 %indvars.iv, 1
  %exitcond.not = icmp eq i64 %indvars.iv.next, %wide.trip.count
  br i1 %exitcond.not, label %._crit_edge.us, label %28, !llvm.loop !91

._crit_edge.us:                                   ; preds = %28
  %indvars.iv.next61 = add nuw nsw i64 %indvars.iv60, 1
  %exitcond64.not = icmp eq i64 %indvars.iv.next61, %wide.trip.count63
  br i1 %exitcond64.not, label %._crit_edge57, label %.lr.ph.us, !llvm.loop !92

._crit_edge57:                                    ; preds = %._crit_edge.us, %10
  ret void
}